; ModuleID = '51/270.c'
source_filename = "51/270.c"
target datalayout = "e-m:e-p270:32:32-p271:32:32-p272:64:64-i64:64-f80:128-n8:16:32:64-S128"
target triple = "x86_64-pc-linux-gnu"

@.str = private unnamed_addr constant [4 x i8] c"%d\0A\00", align 1
@.str.1 = private unnamed_addr constant [3 x i8] c"NO\00", align 1
@.str.2 = private unnamed_addr constant [4 x i8] c"%s\0A\00", align 1

; Function Attrs: noinline nounwind uwtable
define dso_local i32 @main() #0 {
  %1 = alloca i32, align 4
  %2 = alloca i32, align 4
  %3 = alloca i32, align 4
  %4 = alloca i32, align 4
  %5 = alloca i32, align 4
  %6 = alloca i32, align 4
  %7 = alloca i32, align 4
  %8 = alloca i32, align 4
  %9 = alloca i32, align 4
  %10 = alloca [500 x i8], align 16
  %11 = alloca [500 x i32], align 16
  %12 = alloca i32, align 4
  %13 = alloca [500 x [5 x i8]], align 16
  store i32 0, i32* %1, align 4
  store i32 1, i32* %8, align 4
  store i32 1, i32* %9, align 4
  %14 = call i32 (i8*, ...) @__isoc99_scanf(i8* getelementptr inbounds ([4 x i8], [4 x i8]* @.str, i64 0, i64 0), i32* %2)
  %15 = bitcast [500 x i8]* %10 to i8*
  call void @llvm.memset.p0i8.i64(i8* align 16 %15, i8 0, i64 500, i1 false)
  %16 = bitcast [500 x i32]* %11 to i8*
  call void @llvm.memset.p0i8.i64(i8* align 16 %16, i8 0, i64 2000, i1 false)
  %17 = getelementptr inbounds [500 x i8], [500 x i8]* %10, i64 0, i64 0
  %18 = call i32 (i8*, ...) bitcast (i32 (...)* @gets to i32 (i8*, ...)*)(i8* %17)
  %19 = getelementptr inbounds [500 x i8], [500 x i8]* %10, i64 0, i64 0
  %20 = call i64 @strlen(i8* %19) #4
  %21 = trunc i64 %20 to i32
  store i32 %21, i32* %12, align 4
  %22 = bitcast [500 x [5 x i8]]* %13 to i8*
  call void @llvm.memset.p0i8.i64(i8* align 16 %22, i8 0, i64 2500, i1 false)
  store i32 0, i32* %3, align 4
  br label %23

23:                                               ; preds = %51, %0
  %24 = load i32, i32* %3, align 4
  %25 = load i32, i32* %12, align 4
  %26 = load i32, i32* %2, align 4
  %27 = sub nsw i32 %25, %26
  %28 = icmp sle i32 %24, %27
  br i1 %28, label %29, label %54

29:                                               ; preds = %23
  store i32 0, i32* %4, align 4
  br label %30

30:                                               ; preds = %47, %29
  %31 = load i32, i32* %4, align 4
  %32 = load i32, i32* %2, align 4
  %33 = icmp slt i32 %31, %32
  br i1 %33, label %34, label %50

34:                                               ; preds = %30
  %35 = load i32, i32* %3, align 4
  %36 = load i32, i32* %4, align 4
  %37 = add nsw i32 %35, %36
  %38 = sext i32 %37 to i64
  %39 = getelementptr inbounds [500 x i8], [500 x i8]* %10, i64 0, i64 %38
  %40 = load i8, i8* %39, align 1
  %41 = load i32, i32* %3, align 4
  %42 = sext i32 %41 to i64
  %43 = getelementptr inbounds [500 x [5 x i8]], [500 x [5 x i8]]* %13, i64 0, i64 %42
  %44 = load i32, i32* %4, align 4
  %45 = sext i32 %44 to i64
  %46 = getelementptr inbounds [5 x i8], [5 x i8]* %43, i64 0, i64 %45
  store i8 %40, i8* %46, align 1
  br label %47

47:                                               ; preds = %34
  %48 = load i32, i32* %4, align 4
  %49 = add nsw i32 %48, 1
  store i32 %49, i32* %4, align 4
  br label %30

50:                                               ; preds = %30
  br label %51

51:                                               ; preds = %50
  %52 = load i32, i32* %3, align 4
  %53 = add nsw i32 %52, 1
  store i32 %53, i32* %3, align 4
  br label %23

54:                                               ; preds = %23
  store i32 0, i32* %5, align 4
  br label %55

55:                                               ; preds = %116, %54
  %56 = load i32, i32* %5, align 4
  %57 = load i32, i32* %12, align 4
  %58 = load i32, i32* %2, align 4
  %59 = sub nsw i32 %57, %58
  %60 = icmp slt i32 %56, %59
  br i1 %60, label %61, label %119

61:                                               ; preds = %55
  %62 = load i32, i32* %5, align 4
  %63 = sext i32 %62 to i64
  %64 = getelementptr inbounds [500 x i32], [500 x i32]* %11, i64 0, i64 %63
  %65 = load i32, i32* %64, align 4
  %66 = icmp sgt i32 %65, 0
  br i1 %66, label %67, label %71

67:                                               ; preds = %61
  %68 = load i32, i32* %5, align 4
  %69 = sext i32 %68 to i64
  %70 = getelementptr inbounds [500 x i32], [500 x i32]* %11, i64 0, i64 %69
  store i32 0, i32* %70, align 4
  br label %116

71:                                               ; preds = %61
  %72 = load i32, i32* %5, align 4
  %73 = add nsw i32 %72, 1
  store i32 %73, i32* %6, align 4
  br label %74

74:                                               ; preds = %105, %71
  %75 = load i32, i32* %6, align 4
  %76 = load i32, i32* %12, align 4
  %77 = load i32, i32* %2, align 4
  %78 = sub nsw i32 %76, %77
  %79 = icmp sle i32 %75, %78
  br i1 %79, label %80, label %108

80:                                               ; preds = %74
  %81 = load i32, i32* %5, align 4
  %82 = sext i32 %81 to i64
  %83 = getelementptr inbounds [500 x [5 x i8]], [500 x [5 x i8]]* %13, i64 0, i64 %82
  %84 = getelementptr inbounds [5 x i8], [5 x i8]* %83, i64 0, i64 0
  %85 = load i32, i32* %6, align 4
  %86 = sext i32 %85 to i64
  %87 = getelementptr inbounds [500 x [5 x i8]], [500 x [5 x i8]]* %13, i64 0, i64 %86
  %88 = getelementptr inbounds [5 x i8], [5 x i8]* %87, i64 0, i64 0
  %89 = call i32 @strcmp(i8* %84, i8* %88) #4
  %90 = icmp eq i32 %89, 0
  br i1 %90, label %91, label %104

91:                                               ; preds = %80
  %92 = load i32, i32* %5, align 4
  %93 = sext i32 %92 to i64
  %94 = getelementptr inbounds [500 x i32], [500 x i32]* %11, i64 0, i64 %93
  %95 = load i32, i32* %94, align 4
  %96 = add nsw i32 %95, 1
  store i32 %96, i32* %94, align 4
  %97 = load i32, i32* %6, align 4
  %98 = sext i32 %97 to i64
  %99 = getelementptr inbounds [500 x i32], [500 x i32]* %11, i64 0, i64 %98
  %100 = load i32, i32* %99, align 4
  %101 = add nsw i32 %100, 1
  store i32 %101, i32* %99, align 4
  %102 = load i32, i32* %8, align 4
  %103 = add nsw i32 %102, 1
  store i32 %103, i32* %8, align 4
  br label %104

104:                                              ; preds = %91, %80
  br label %105

105:                                              ; preds = %104
  %106 = load i32, i32* %6, align 4
  %107 = add nsw i32 %106, 1
  store i32 %107, i32* %6, align 4
  br label %74

108:                                              ; preds = %74
  %109 = load i32, i32* %8, align 4
  %110 = load i32, i32* %9, align 4
  %111 = icmp sgt i32 %109, %110
  br i1 %111, label %112, label %114

112:                                              ; preds = %108
  %113 = load i32, i32* %8, align 4
  store i32 %113, i32* %9, align 4
  br label %114

114:                                              ; preds = %112, %108
  store i32 1, i32* %8, align 4
  br label %115

115:                                              ; preds = %114
  br label %116

116:                                              ; preds = %115, %67
  %117 = load i32, i32* %5, align 4
  %118 = add nsw i32 %117, 1
  store i32 %118, i32* %5, align 4
  br label %55

119:                                              ; preds = %55
  %120 = load i32, i32* %9, align 4
  %121 = icmp eq i32 %120, 1
  br i1 %121, label %122, label %124

122:                                              ; preds = %119
  %123 = call i32 (i8*, ...) @printf(i8* getelementptr inbounds ([3 x i8], [3 x i8]* @.str.1, i64 0, i64 0))
  br label %152

124:                                              ; preds = %119
  %125 = load i32, i32* %9, align 4
  %126 = call i32 (i8*, ...) @printf(i8* getelementptr inbounds ([4 x i8], [4 x i8]* @.str, i64 0, i64 0), i32 %125)
  store i32 0, i32* %7, align 4
  br label %127

127:                                              ; preds = %148, %124
  %128 = load i32, i32* %7, align 4
  %129 = load i32, i32* %12, align 4
  %130 = load i32, i32* %2, align 4
  %131 = sub nsw i32 %129, %130
  %132 = icmp slt i32 %128, %131
  br i1 %132, label %133, label %151

133:                                              ; preds = %127
  %134 = load i32, i32* %7, align 4
  %135 = sext i32 %134 to i64
  %136 = getelementptr inbounds [500 x i32], [500 x i32]* %11, i64 0, i64 %135
  %137 = load i32, i32* %136, align 4
  %138 = add nsw i32 %137, 1
  %139 = load i32, i32* %9, align 4
  %140 = icmp eq i32 %138, %139
  br i1 %140, label %141, label %147

141:                                              ; preds = %133
  %142 = load i32, i32* %7, align 4
  %143 = sext i32 %142 to i64
  %144 = getelementptr inbounds [500 x [5 x i8]], [500 x [5 x i8]]* %13, i64 0, i64 %143
  %145 = getelementptr inbounds [5 x i8], [5 x i8]* %144, i64 0, i64 0
  %146 = call i32 (i8*, ...) @printf(i8* getelementptr inbounds ([4 x i8], [4 x i8]* @.str.2, i64 0, i64 0), i8* %145)
  br label %147

147:                                              ; preds = %141, %133
  br label %148

148:                                              ; preds = %147
  %149 = load i32, i32* %7, align 4
  %150 = add nsw i32 %149, 1
  store i32 %150, i32* %7, align 4
  br label %127

151:                                              ; preds = %127
  br label %152

152:                                              ; preds = %151, %122
  ret i32 0
}

declare dso_local i32 @__isoc99_scanf(i8*, ...) #1

; Function Attrs: argmemonly nounwind willreturn
declare void @llvm.memset.p0i8.i64(i8* nocapture writeonly, i8, i64, i1 immarg) #2

declare dso_local i32 @gets(...) #1

; Function Attrs: nounwind readonly
declare dso_local i64 @strlen(i8*) #3

; Function Attrs: nounwind readonly
declare dso_local i32 @strcmp(i8*, i8*) #3

declare dso_local i32 @printf(i8*, ...) #1


!llvm.module.flags = !{!0}
!llvm.ident = !{!1}

!0 = !{i32 1, !"wchar_size", i32 4}
!1 = !{!"clang version 10.0.0-4ubuntu1 "}
